(ikeras_frcnn.config
Config
p0
(dp1
S'use_vertical_flips'
p2
I00
sS'verbose'
p3
I01
sS'classifier_regr_std'
p4
(lp5
F8.0
aF8.0
aF4.0
aF4.0
asS'classifier_min_overlap'
p6
F0.1
sS'rot_90'
p7
I00
sS'class_mapping'
p8
(dp9
S'0017'
p10
I10
sS'0016'
p11
I17
sS'0015'
p12
I6
sS'0014'
p13
I26
sS'0013'
p14
I27
sS'0012'
p15
I11
sS'0011'
p16
I18
sS'0023'
p17
I14
sS'0006'
p18
I22
sS'0019'
p19
I12
sS'0018'
p20
I7
sS'0021'
p21
I2
sS'bg'
p22
I30
sS'0027'
p23
I13
sS'0024'
p24
I21
sS'0010'
p25
I23
sS'0004'
p26
I15
sS'0005'
p27
I3
sS'0020'
p28
I9
sS'0007'
p29
I4
sS'0026'
p30
I20
sS'0001'
p31
I1
sS'0002'
p32
I8
sS'0025'
p33
I16
sS'0028'
p34
I19
sS'0029'
p35
I5
sS'0008'
p36
I0
sS'0009'
p37
I25
sS'0030'
p38
I28
sS'0022'
p39
I24
sS'0003'
p40
I29
ssS'use_horizontal_flips'
p41
I01
sS'rpn_max_overlap'
p42
F0.7
sS'network'
p43
S'resnet50'
p44
sS'img_channel_mean'
p45
(lp46
F103.939
aF116.779
aF123.68
asS'balanced_classes'
p47
I00
sS'anchor_box_ratios'
p48
(lp49
(lp50
I1
aI1
aa(lp51
F0.7071067811865475
aF1.414213562373095
aa(lp52
F1.414213562373095
aF0.7071067811865475
aasS'img_scaling_factor'
p53
F1.0
sS'rpn_stride'
p54
I16
sS'num_rois'
p55
I16
sS'base_net_weights'
p56
S'./model_frcnn.hdf5'
p57
sS'anchor_box_scales'
p58
(lp59
I32
aI85
aI182
asS'rpn_min_overlap'
p60
F0.3
sS'model_path'
p61
g57
sS'classifier_max_overlap'
p62
F0.5
sS'std_scaling'
p63
F4.0
sS'im_size'
p64
I600
sb.